target datalayout = "e-m:e-p270:32:32-p271:32:32-p272:64:64-i64:64-i128:128-f80:128-n8:16:32:64-S128"
target triple = "x86_64-unknown-linux-gnu"

%"class.absl::debian2::string_view" = type { ptr, i64 }
%"class.std::__cxx11::basic_string" = type { %"struct.std::__cxx11::basic_string<char>::_Alloc_hider", i64, %union.anon }
%"struct.std::__cxx11::basic_string<char>::_Alloc_hider" = type { ptr }
%union.anon = type { i64, [8 x i8] }
%class.anon.85 = type { i8 }

@.str.7 = private unnamed_addr constant [5 x i8] c"\\x00\00", align 1

; Function Attrs: mustprogress nounwind uwtable
define linkonce_odr void @_ZZNK4absl7debian211string_viewixEmENKUlvE_clEv(ptr noundef nonnull align 1 dereferenceable(1) %this) #0 comdat align 2 {
entry:
  %this.addr = alloca ptr, align 8
  store ptr %this, ptr %this.addr, align 8
  br label %do.body

do.body:                                          ; preds = %entry
  call void @llvm.trap()
  unreachable

do.end:                                           ; No predecessors!
  ret void
}

; Function Attrs: mustprogress uwtable
define linkonce_odr noundef nonnull align 1 dereferenceable(1) ptr @_ZNK4absl7debian211string_viewixEm(ptr noundef nonnull align 8 dereferenceable(16) %this, i64 noundef %i) #1 comdat align 2 {
entry:
  %this.addr = alloca ptr, align 8
  %i.addr = alloca i64, align 8
  %ref.tmp = alloca %class.anon.85, align 1
  store ptr %this, ptr %this.addr, align 8
  store i64 %i, ptr %i.addr, align 8
  %this1 = load ptr, ptr %this.addr, align 8
  %0 = load i64, ptr %i.addr, align 8
  %call = call noundef i64 @_ZNK4absl7debian211string_view4sizeEv(ptr noundef nonnull align 8 dereferenceable(16) %this1) #16
  %cmp = icmp ult i64 %0, %call
  br i1 %cmp, label %cond.true, label %cond.false

cond.true:                                        ; preds = %entry
  br label %cond.end

cond.false:                                       ; preds = %entry
  call void @_ZZNK4absl7debian211string_viewixEmENKUlvE_clEv(ptr noundef nonnull align 1 dereferenceable(1) %ref.tmp)
  br label %cond.end

cond.end:                                         ; preds = %cond.false, %cond.true
  %ptr_ = getelementptr inbounds %"class.absl::debian2::string_view", ptr %this1, i32 0, i32 0
  %1 = load ptr, ptr %ptr_, align 8
  %2 = load i64, ptr %i.addr, align 8
  %arrayidx = getelementptr inbounds i8, ptr %1, i64 %2
  ret ptr %arrayidx
}

; Function Attrs: mustprogress nounwind uwtable
define linkonce_odr noundef i64 @_ZNK4absl7debian211string_view4sizeEv(ptr noundef nonnull align 8 dereferenceable(16) %this) #0 comdat align 2 {
entry:
  %this.addr = alloca ptr, align 8
  store ptr %this, ptr %this.addr, align 8
  %this1 = load ptr, ptr %this.addr, align 8
  %length_ = getelementptr inbounds %"class.absl::debian2::string_view", ptr %this1, i32 0, i32 1
  %0 = load i64, ptr %length_, align 8
  ret i64 %0
}

; Function Attrs: mustprogress uwtable
define void @_ZN3re23RE29QuoteMetaB5cxx11EN4absl7debian211string_viewE(ptr noalias sret(%"class.std::__cxx11::basic_string") align 8 %agg.result, ptr %unquoted.coerce0, i64 %unquoted.coerce1) #1 align 2 personality ptr @__gxx_personality_v0 {
entry:
  %result.ptr = alloca ptr, align 8
  %unquoted = alloca %"class.absl::debian2::string_view", align 8
  %nrvo = alloca i1, align 1
  %exn.slot = alloca ptr, align 8
  %ehselector.slot = alloca i32, align 4
  %ii = alloca i64, align 8
  store ptr %agg.result, ptr %result.ptr, align 8
  %0 = getelementptr inbounds { ptr, i64 }, ptr %unquoted, i32 0, i32 0
  store ptr %unquoted.coerce0, ptr %0, align 8
  %1 = getelementptr inbounds { ptr, i64 }, ptr %unquoted, i32 0, i32 1
  store i64 %unquoted.coerce1, ptr %1, align 8
  store i1 false, ptr %nrvo, align 1
  call void @_ZNSt7__cxx1112basic_stringIcSt11char_traitsIcESaIcEEC1Ev(ptr noundef nonnull align 8 dereferenceable(32) %agg.result) #16
  %call = call noundef i64 @_ZNK4absl7debian211string_view4sizeEv(ptr noundef nonnull align 8 dereferenceable(16) %unquoted) #16
  %shl = shl i64 %call, 1
  invoke void @_ZNSt7__cxx1112basic_stringIcSt11char_traitsIcESaIcEE7reserveEm(ptr noundef nonnull align 8 dereferenceable(32) %agg.result, i64 noundef %shl)
          to label %invoke.cont unwind label %lpad

invoke.cont:                                      ; preds = %entry
  store i64 0, ptr %ii, align 8
  br label %for.cond

for.cond:                                         ; preds = %for.inc, %invoke.cont
  %2 = load i64, ptr %ii, align 8
  %call1 = call noundef i64 @_ZNK4absl7debian211string_view4sizeEv(ptr noundef nonnull align 8 dereferenceable(16) %unquoted) #16
  %cmp = icmp ult i64 %2, %call1
  br i1 %cmp, label %for.body, label %for.end

for.body:                                         ; preds = %for.cond
  %3 = load i64, ptr %ii, align 8
  %call3 = invoke noundef nonnull align 1 dereferenceable(1) ptr @_ZNK4absl7debian211string_viewixEm(ptr noundef nonnull align 8 dereferenceable(16) %unquoted, i64 noundef %3)
          to label %invoke.cont2 unwind label %lpad

invoke.cont2:                                     ; preds = %for.body
  %4 = load i8, ptr %call3, align 1
  %conv = sext i8 %4 to i32
  %cmp4 = icmp slt i32 %conv, 97
  br i1 %cmp4, label %land.lhs.true, label %lor.lhs.false

lor.lhs.false:                                    ; preds = %invoke.cont2
  %5 = load i64, ptr %ii, align 8
  %call6 = invoke noundef nonnull align 1 dereferenceable(1) ptr @_ZNK4absl7debian211string_viewixEm(ptr noundef nonnull align 8 dereferenceable(16) %unquoted, i64 noundef %5)
          to label %invoke.cont5 unwind label %lpad

invoke.cont5:                                     ; preds = %lor.lhs.false
  %6 = load i8, ptr %call6, align 1
  %conv7 = sext i8 %6 to i32
  %cmp8 = icmp sgt i32 %conv7, 122
  br i1 %cmp8, label %land.lhs.true, label %if.end46

land.lhs.true:                                    ; preds = %invoke.cont5, %invoke.cont2
  %7 = load i64, ptr %ii, align 8
  %call10 = invoke noundef nonnull align 1 dereferenceable(1) ptr @_ZNK4absl7debian211string_viewixEm(ptr noundef nonnull align 8 dereferenceable(16) %unquoted, i64 noundef %7)
          to label %invoke.cont9 unwind label %lpad

invoke.cont9:                                     ; preds = %land.lhs.true
  %8 = load i8, ptr %call10, align 1
  %conv11 = sext i8 %8 to i32
  %cmp12 = icmp slt i32 %conv11, 65
  br i1 %cmp12, label %land.lhs.true18, label %lor.lhs.false13

lor.lhs.false13:                                  ; preds = %invoke.cont9
  %9 = load i64, ptr %ii, align 8
  %call15 = invoke noundef nonnull align 1 dereferenceable(1) ptr @_ZNK4absl7debian211string_viewixEm(ptr noundef nonnull align 8 dereferenceable(16) %unquoted, i64 noundef %9)
          to label %invoke.cont14 unwind label %lpad

invoke.cont14:                                    ; preds = %lor.lhs.false13
  %10 = load i8, ptr %call15, align 1
  %conv16 = sext i8 %10 to i32
  %cmp17 = icmp sgt i32 %conv16, 90
  br i1 %cmp17, label %land.lhs.true18, label %if.end46

land.lhs.true18:                                  ; preds = %invoke.cont14, %invoke.cont9
  %11 = load i64, ptr %ii, align 8
  %call20 = invoke noundef nonnull align 1 dereferenceable(1) ptr @_ZNK4absl7debian211string_viewixEm(ptr noundef nonnull align 8 dereferenceable(16) %unquoted, i64 noundef %11)
          to label %invoke.cont19 unwind label %lpad

invoke.cont19:                                    ; preds = %land.lhs.true18
  %12 = load i8, ptr %call20, align 1
  %conv21 = sext i8 %12 to i32
  %cmp22 = icmp slt i32 %conv21, 48
  br i1 %cmp22, label %land.lhs.true28, label %lor.lhs.false23

lor.lhs.false23:                                  ; preds = %invoke.cont19
  %13 = load i64, ptr %ii, align 8
  %call25 = invoke noundef nonnull align 1 dereferenceable(1) ptr @_ZNK4absl7debian211string_viewixEm(ptr noundef nonnull align 8 dereferenceable(16) %unquoted, i64 noundef %13)
          to label %invoke.cont24 unwind label %lpad

invoke.cont24:                                    ; preds = %lor.lhs.false23
  %14 = load i8, ptr %call25, align 1
  %conv26 = sext i8 %14 to i32
  %cmp27 = icmp sgt i32 %conv26, 57
  br i1 %cmp27, label %land.lhs.true28, label %if.end46

land.lhs.true28:                                  ; preds = %invoke.cont24, %invoke.cont19
  %15 = load i64, ptr %ii, align 8
  %call30 = invoke noundef nonnull align 1 dereferenceable(1) ptr @_ZNK4absl7debian211string_viewixEm(ptr noundef nonnull align 8 dereferenceable(16) %unquoted, i64 noundef %15)
          to label %invoke.cont29 unwind label %lpad

invoke.cont29:                                    ; preds = %land.lhs.true28
  %16 = load i8, ptr %call30, align 1
  %conv31 = sext i8 %16 to i32
  %cmp32 = icmp ne i32 %conv31, 95
  br i1 %cmp32, label %land.lhs.true33, label %if.end46

land.lhs.true33:                                  ; preds = %invoke.cont29
  %17 = load i64, ptr %ii, align 8
  %call35 = invoke noundef nonnull align 1 dereferenceable(1) ptr @_ZNK4absl7debian211string_viewixEm(ptr noundef nonnull align 8 dereferenceable(16) %unquoted, i64 noundef %17)
          to label %invoke.cont34 unwind label %lpad

invoke.cont34:                                    ; preds = %land.lhs.true33
  %18 = load i8, ptr %call35, align 1
  %conv36 = sext i8 %18 to i32
  %and = and i32 %conv36, 128
  %tobool = icmp ne i32 %and, 0
  br i1 %tobool, label %if.end46, label %if.then

if.then:                                          ; preds = %invoke.cont34
  %19 = load i64, ptr %ii, align 8
  %call38 = invoke noundef nonnull align 1 dereferenceable(1) ptr @_ZNK4absl7debian211string_viewixEm(ptr noundef nonnull align 8 dereferenceable(16) %unquoted, i64 noundef %19)
          to label %invoke.cont37 unwind label %lpad

invoke.cont37:                                    ; preds = %if.then
  %20 = load i8, ptr %call38, align 1
  %conv39 = sext i8 %20 to i32
  %cmp40 = icmp eq i32 %conv39, 0
  br i1 %cmp40, label %if.then41, label %if.end

if.then41:                                        ; preds = %invoke.cont37
  %call43 = invoke noundef nonnull align 8 dereferenceable(32) ptr @_ZNSt7__cxx1112basic_stringIcSt11char_traitsIcESaIcEEpLEPKc(ptr noundef nonnull align 8 dereferenceable(32) %agg.result, ptr noundef @.str.7)
          to label %invoke.cont42 unwind label %lpad

invoke.cont42:                                    ; preds = %if.then41
  br label %for.inc

lpad:                                             ; preds = %invoke.cont47, %if.end46, %if.end, %if.then41, %if.then, %land.lhs.true33, %land.lhs.true28, %lor.lhs.false23, %land.lhs.true18, %lor.lhs.false13, %land.lhs.true, %lor.lhs.false, %for.body, %entry
  %21 = landingpad { ptr, i32 }
          cleanup
  %22 = extractvalue { ptr, i32 } %21, 0
  store ptr %22, ptr %exn.slot, align 8
  %23 = extractvalue { ptr, i32 } %21, 1
  store i32 %23, ptr %ehselector.slot, align 4
  call void @_ZNSt7__cxx1112basic_stringIcSt11char_traitsIcESaIcEED1Ev(ptr noundef nonnull align 8 dereferenceable(32) %agg.result) #16
  br label %eh.resume

if.end:                                           ; preds = %invoke.cont37
  %call45 = invoke noundef nonnull align 8 dereferenceable(32) ptr @_ZNSt7__cxx1112basic_stringIcSt11char_traitsIcESaIcEEpLEc(ptr noundef nonnull align 8 dereferenceable(32) %agg.result, i8 noundef signext 92)
          to label %invoke.cont44 unwind label %lpad

invoke.cont44:                                    ; preds = %if.end
  br label %if.end46

if.end46:                                         ; preds = %invoke.cont44, %invoke.cont34, %invoke.cont29, %invoke.cont24, %invoke.cont14, %invoke.cont5
  %24 = load i64, ptr %ii, align 8
  %call48 = invoke noundef nonnull align 1 dereferenceable(1) ptr @_ZNK4absl7debian211string_viewixEm(ptr noundef nonnull align 8 dereferenceable(16) %unquoted, i64 noundef %24)
          to label %invoke.cont47 unwind label %lpad

invoke.cont47:                                    ; preds = %if.end46
  %25 = load i8, ptr %call48, align 1
  %call50 = invoke noundef nonnull align 8 dereferenceable(32) ptr @_ZNSt7__cxx1112basic_stringIcSt11char_traitsIcESaIcEEpLEc(ptr noundef nonnull align 8 dereferenceable(32) %agg.result, i8 noundef signext %25)
          to label %invoke.cont49 unwind label %lpad

invoke.cont49:                                    ; preds = %invoke.cont47
  br label %for.inc

for.inc:                                          ; preds = %invoke.cont49, %invoke.cont42
  %26 = load i64, ptr %ii, align 8
  %inc = add i64 %26, 1
  store i64 %inc, ptr %ii, align 8
  br label %for.cond, !llvm.loop !11

for.end:                                          ; preds = %for.cond
  store i1 true, ptr %nrvo, align 1
  %nrvo.val = load i1, ptr %nrvo, align 1
  br i1 %nrvo.val, label %nrvo.skipdtor, label %nrvo.unused

nrvo.unused:                                      ; preds = %for.end
  call void @_ZNSt7__cxx1112basic_stringIcSt11char_traitsIcESaIcEED1Ev(ptr noundef nonnull align 8 dereferenceable(32) %agg.result) #16
  br label %nrvo.skipdtor

nrvo.skipdtor:                                    ; preds = %nrvo.unused, %for.end
  ret void

eh.resume:                                        ; preds = %lpad
  %exn = load ptr, ptr %exn.slot, align 8
  %sel = load i32, ptr %ehselector.slot, align 4
  %lpad.val = insertvalue { ptr, i32 } poison, ptr %exn, 0
  %lpad.val51 = insertvalue { ptr, i32 } %lpad.val, i32 %sel, 1
  resume { ptr, i32 } %lpad.val51
}