; Function Attrs: mustprogress uwtable
define void @_ZN3re23RE29QuoteMetaB5cxx11EN4absl7debian211string_viewE(ptr noalias nonnull sret(%"class.std::__cxx11::basic_string") align 8 %agg.result, ptr readonly captures(none) %unquoted.coerce0, i64 %unquoted.coerce1) local_unnamed_addr #2 align 2 personality ptr @__gxx_personality_v0 {
entry:
  tail call void @_ZNSt7__cxx1112basic_stringIcSt11char_traitsIcESaIcEEC1Ev(ptr noundef nonnull align 8 dereferenceable(32) %agg.result) #30
  %shl = shl i64 %unquoted.coerce1, 1
  invoke void @_ZNSt7__cxx1112basic_stringIcSt11char_traitsIcESaIcEE7reserveEm(ptr noundef nonnull align 8 dereferenceable(32) %agg.result, i64 noundef %shl)
          to label %for.cond.preheader unwind label %lpad.loopexit.split-lp

for.cond.preheader:                               ; preds = %entry
  %cmp91.not = icmp eq i64 %unquoted.coerce1, 0
  br i1 %cmp91.not, label %nrvo.skipdtor, label %invoke.cont2

invoke.cont2:                                     ; preds = %for.cond.preheader, %for.inc
  %ii.092 = phi i64 [ %inc, %for.inc ], [ 0, %for.cond.preheader ]
  %arrayidx.i = getelementptr inbounds i8, ptr %unquoted.coerce0, i64 %ii.092
  %0 = load i8, ptr %arrayidx.i, align 1
  %cmp4 = icmp slt i8 %0, 97
  br i1 %cmp4, label %invoke.cont9, label %invoke.cont5

invoke.cont5:                                     ; preds = %invoke.cont2
  %cmp8 = icmp samesign ugt i8 %0, 122
  br i1 %cmp8, label %if.end, label %invoke.cont47

invoke.cont9:                                     ; preds = %invoke.cont2
  %cmp12 = icmp slt i8 %0, 65
  br i1 %cmp12, label %invoke.cont19, label %invoke.cont14

invoke.cont14:                                    ; preds = %invoke.cont9
  %cmp17 = icmp samesign ult i8 %0, 91
  %cmp32.not = icmp eq i8 %0, 95
  %or.cond = or i1 %cmp17, %cmp32.not
  br i1 %or.cond, label %invoke.cont47, label %if.end

invoke.cont19:                                    ; preds = %invoke.cont9
  %cmp22 = icmp slt i8 %0, 48
  br i1 %cmp22, label %invoke.cont34, label %invoke.cont24

invoke.cont24:                                    ; preds = %invoke.cont19
  %cmp27 = icmp samesign ugt i8 %0, 57
  br i1 %cmp27, label %if.end, label %invoke.cont47

invoke.cont34:                                    ; preds = %invoke.cont19
  %tobool.not = icmp sgt i8 %0, -1
  br i1 %tobool.not, label %invoke.cont37, label %invoke.cont47

invoke.cont37:                                    ; preds = %invoke.cont34
  %cmp40 = icmp eq i8 %0, 0
  br i1 %cmp40, label %if.then41, label %if.end

if.then41:                                        ; preds = %invoke.cont37
  %call43 = invoke noundef nonnull align 8 dereferenceable(32) ptr @_ZNSt7__cxx1112basic_stringIcSt11char_traitsIcESaIcEEpLEPKc(ptr noundef nonnull align 8 dereferenceable(32) %agg.result, ptr noundef nonnull @.str.7)
          to label %for.inc unwind label %lpad.loopexit

lpad.loopexit:                                    ; preds = %if.then41, %if.end, %invoke.cont47
  %lpad.loopexit89 = landingpad { ptr, i32 }
          cleanup
  br label %lpad

lpad.loopexit.split-lp:                           ; preds = %entry
  %lpad.loopexit.split-lp90 = landingpad { ptr, i32 }
          cleanup
  br label %lpad

lpad:                                             ; preds = %lpad.loopexit.split-lp, %lpad.loopexit
  %lpad.phi = phi { ptr, i32 } [ %lpad.loopexit89, %lpad.loopexit ], [ %lpad.loopexit.split-lp90, %lpad.loopexit.split-lp ]
  tail call void @_ZNSt7__cxx1112basic_stringIcSt11char_traitsIcESaIcEED1Ev(ptr noundef nonnull align 8 dereferenceable(32) %agg.result) #30
  resume { ptr, i32 } %lpad.phi

if.end:                                           ; preds = %invoke.cont14, %invoke.cont5, %invoke.cont24, %invoke.cont37
  %call45 = invoke noundef nonnull align 8 dereferenceable(32) ptr @_ZNSt7__cxx1112basic_stringIcSt11char_traitsIcESaIcEEpLEc(ptr noundef nonnull align 8 dereferenceable(32) %agg.result, i8 noundef signext 92)
          to label %if.end.invoke.cont47_crit_edge unwind label %lpad.loopexit

if.end.invoke.cont47_crit_edge:                   ; preds = %if.end
  %.pre = load i8, ptr %arrayidx.i, align 1
  br label %invoke.cont47

invoke.cont47:                                    ; preds = %if.end.invoke.cont47_crit_edge, %invoke.cont34, %invoke.cont24, %invoke.cont14, %invoke.cont5
  %1 = phi i8 [ %.pre, %if.end.invoke.cont47_crit_edge ], [ %0, %invoke.cont34 ], [ %0, %invoke.cont24 ], [ %0, %invoke.cont14 ], [ %0, %invoke.cont5 ]
  %call50 = invoke noundef nonnull align 8 dereferenceable(32) ptr @_ZNSt7__cxx1112basic_stringIcSt11char_traitsIcESaIcEEpLEc(ptr noundef nonnull align 8 dereferenceable(32) %agg.result, i8 noundef signext %1)
          to label %for.inc unwind label %lpad.loopexit

for.inc:                                          ; preds = %invoke.cont47, %if.then41
  %inc = add nuw i64 %ii.092, 1
  %exitcond.not = icmp eq i64 %inc, %unquoted.coerce1
  br i1 %exitcond.not, label %nrvo.skipdtor, label %invoke.cont2, !llvm.loop !24

nrvo.skipdtor:                                    ; preds = %for.inc, %for.cond.preheader
  ret void
}